; Function Attrs: mustprogress uwtable
define dso_local void @_ZN4Json23BuiltStyledStreamWriter8unindentEv(ptr noundef nonnull align 8 dereferenceable(228) %0) local_unnamed_addr #0 align 2 {
  %2 = getelementptr inbounds i8, ptr %0, i64 40
  %3 = tail call noundef i64 @_ZNKSt7__cxx1112basic_stringIcSt11char_traitsIcESaIcEE4sizeEv(ptr noundef nonnull align 8 dereferenceable(32) %2) #19
  %4 = getelementptr inbounds i8, ptr %0, i64 80
  %5 = tail call noundef i64 @_ZNKSt7__cxx1112basic_stringIcSt11char_traitsIcESaIcEE4sizeEv(ptr noundef nonnull align 8 dereferenceable(32) %4) #19
  %6 = sub i64 %3, %5
  tail call void @_ZNSt7__cxx1112basic_stringIcSt11char_traitsIcESaIcEE6resizeEm(ptr noundef nonnull align 8 dereferenceable(32) %2, i64 noundef %6)
  ret void
}